target datalayout = "e-m:e-p270:32:32-p271:32:32-p272:64:64-i64:64-i128:128-f80:128-n8:16:32:64-S128"
target triple = "x86_64-pc-linux-gnu"

%struct._zval_struct = type { %union._zend_value, %union.anon, %union.anon.2 }
%union._zend_value = type { i64 }
%union.anon = type { i32 }
%union.anon.2 = type { i32 }
%struct._zend_refcounted_h = type { i32, %union.anon.3 }
%union.anon.3 = type { i32 }
%struct._php_random_status_state_xoshiro256starstar = type { [4 x i64] }
%struct._php_random_algo_with_state = type { ptr, ptr }
%struct._zend_execute_data = type { ptr, ptr, ptr, ptr, %struct._zval_struct, ptr, ptr, ptr, ptr }
%struct._php_random_engine = type { %struct._php_random_algo_with_state, %struct._zend_object }
%struct._zend_object = type { %struct._zend_refcounted_h, i32, i32, ptr, ptr, ptr, [1 x %struct._zval_struct] }

@php_random_xoshiro256starstar_jump.jmp = internal constant [4 x i64] [i64 1733541517147835066, i64 -3051731464161248980, i64 -6244198995065845334, i64 4155657270789760540], align 16

; Function Attrs: inlinehint nounwind willreturn memory(none) uwtable
define internal i64 @rotl(i64 noundef %0, i32 noundef %1) #8 {
  %3 = alloca i64, align 8
  %4 = alloca i32, align 4
  store i64 %0, ptr %3, align 8, !tbaa !9
  store i32 %1, ptr %4, align 4, !tbaa !23
  %5 = load i64, ptr %3, align 8, !tbaa !9
  %6 = load i32, ptr %4, align 4, !tbaa !23
  %7 = zext i32 %6 to i64
  %8 = shl i64 %5, %7
  %9 = load i64, ptr %3, align 8, !tbaa !9
  %10 = load i32, ptr %4, align 4, !tbaa !23
  %11 = sub nsw i32 64, %10
  %12 = zext i32 %11 to i64
  %13 = lshr i64 %9, %12
  %14 = or i64 %8, %13
  ret i64 %14
}

; Function Attrs: inlinehint nounwind uwtable
define internal i64 @generate_state(ptr noundef %0) #0 {
  %2 = alloca ptr, align 8
  %3 = alloca i64, align 8
  %4 = alloca i64, align 8
  store ptr %0, ptr %2, align 8, !tbaa !4
  call void @llvm.lifetime.start.p0(i64 8, ptr %3) #9
  %5 = load ptr, ptr %2, align 8, !tbaa !4
  %6 = getelementptr inbounds nuw %struct._php_random_status_state_xoshiro256starstar, ptr %5, i32 0, i32 0
  %7 = getelementptr inbounds [4 x i64], ptr %6, i64 0, i64 1
  %8 = load i64, ptr %7, align 8, !tbaa !9
  %9 = mul i64 %8, 5
  %10 = call i64 @rotl(i64 noundef %9, i32 noundef 7) #10
  %11 = mul i64 %10, 9
  store i64 %11, ptr %3, align 8, !tbaa !9
  call void @llvm.lifetime.start.p0(i64 8, ptr %4) #9
  %12 = load ptr, ptr %2, align 8, !tbaa !4
  %13 = getelementptr inbounds nuw %struct._php_random_status_state_xoshiro256starstar, ptr %12, i32 0, i32 0
  %14 = getelementptr inbounds [4 x i64], ptr %13, i64 0, i64 1
  %15 = load i64, ptr %14, align 8, !tbaa !9
  %16 = shl i64 %15, 17
  store i64 %16, ptr %4, align 8, !tbaa !9
  %17 = load ptr, ptr %2, align 8, !tbaa !4
  %18 = getelementptr inbounds nuw %struct._php_random_status_state_xoshiro256starstar, ptr %17, i32 0, i32 0
  %19 = getelementptr inbounds [4 x i64], ptr %18, i64 0, i64 0
  %20 = load i64, ptr %19, align 8, !tbaa !9
  %21 = load ptr, ptr %2, align 8, !tbaa !4
  %22 = getelementptr inbounds nuw %struct._php_random_status_state_xoshiro256starstar, ptr %21, i32 0, i32 0
  %23 = getelementptr inbounds [4 x i64], ptr %22, i64 0, i64 2
  %24 = load i64, ptr %23, align 8, !tbaa !9
  %25 = xor i64 %24, %20
  store i64 %25, ptr %23, align 8, !tbaa !9
  %26 = load ptr, ptr %2, align 8, !tbaa !4
  %27 = getelementptr inbounds nuw %struct._php_random_status_state_xoshiro256starstar, ptr %26, i32 0, i32 0
  %28 = getelementptr inbounds [4 x i64], ptr %27, i64 0, i64 1
  %29 = load i64, ptr %28, align 8, !tbaa !9
  %30 = load ptr, ptr %2, align 8, !tbaa !4
  %31 = getelementptr inbounds nuw %struct._php_random_status_state_xoshiro256starstar, ptr %30, i32 0, i32 0
  %32 = getelementptr inbounds [4 x i64], ptr %31, i64 0, i64 3
  %33 = load i64, ptr %32, align 8, !tbaa !9
  %34 = xor i64 %33, %29
  store i64 %34, ptr %32, align 8, !tbaa !9
  %35 = load ptr, ptr %2, align 8, !tbaa !4
  %36 = getelementptr inbounds nuw %struct._php_random_status_state_xoshiro256starstar, ptr %35, i32 0, i32 0
  %37 = getelementptr inbounds [4 x i64], ptr %36, i64 0, i64 2
  %38 = load i64, ptr %37, align 8, !tbaa !9
  %39 = load ptr, ptr %2, align 8, !tbaa !4
  %40 = getelementptr inbounds nuw %struct._php_random_status_state_xoshiro256starstar, ptr %39, i32 0, i32 0
  %41 = getelementptr inbounds [4 x i64], ptr %40, i64 0, i64 1
  %42 = load i64, ptr %41, align 8, !tbaa !9
  %43 = xor i64 %42, %38
  store i64 %43, ptr %41, align 8, !tbaa !9
  %44 = load ptr, ptr %2, align 8, !tbaa !4
  %45 = getelementptr inbounds nuw %struct._php_random_status_state_xoshiro256starstar, ptr %44, i32 0, i32 0
  %46 = getelementptr inbounds [4 x i64], ptr %45, i64 0, i64 3
  %47 = load i64, ptr %46, align 8, !tbaa !9
  %48 = load ptr, ptr %2, align 8, !tbaa !4
  %49 = getelementptr inbounds nuw %struct._php_random_status_state_xoshiro256starstar, ptr %48, i32 0, i32 0
  %50 = getelementptr inbounds [4 x i64], ptr %49, i64 0, i64 0
  %51 = load i64, ptr %50, align 8, !tbaa !9
  %52 = xor i64 %51, %47
  store i64 %52, ptr %50, align 8, !tbaa !9
  %53 = load i64, ptr %4, align 8, !tbaa !9
  %54 = load ptr, ptr %2, align 8, !tbaa !4
  %55 = getelementptr inbounds nuw %struct._php_random_status_state_xoshiro256starstar, ptr %54, i32 0, i32 0
  %56 = getelementptr inbounds [4 x i64], ptr %55, i64 0, i64 2
  %57 = load i64, ptr %56, align 8, !tbaa !9
  %58 = xor i64 %57, %53
  store i64 %58, ptr %56, align 8, !tbaa !9
  %59 = load ptr, ptr %2, align 8, !tbaa !4
  %60 = getelementptr inbounds nuw %struct._php_random_status_state_xoshiro256starstar, ptr %59, i32 0, i32 0
  %61 = getelementptr inbounds [4 x i64], ptr %60, i64 0, i64 3
  %62 = load i64, ptr %61, align 8, !tbaa !9
  %63 = call i64 @rotl(i64 noundef %62, i32 noundef 45) #10
  %64 = load ptr, ptr %2, align 8, !tbaa !4
  %65 = getelementptr inbounds nuw %struct._php_random_status_state_xoshiro256starstar, ptr %64, i32 0, i32 0
  %66 = getelementptr inbounds [4 x i64], ptr %65, i64 0, i64 3
  store i64 %63, ptr %66, align 8, !tbaa !9
  %67 = load i64, ptr %3, align 8, !tbaa !9
  call void @llvm.lifetime.end.p0(i64 8, ptr %4) #9
  call void @llvm.lifetime.end.p0(i64 8, ptr %3) #9
  ret i64 %67
}

; Function Attrs: inlinehint nounwind uwtable
define internal void @jump(ptr noundef %0, ptr noundef %1) #0 {
  %3 = alloca ptr, align 8
  %4 = alloca ptr, align 8
  %5 = alloca i64, align 8
  %6 = alloca i64, align 8
  %7 = alloca i64, align 8
  %8 = alloca i64, align 8
  %9 = alloca i32, align 4
  %10 = alloca i32, align 4
  %11 = alloca i32, align 4
  store ptr %0, ptr %3, align 8, !tbaa !4
  store ptr %1, ptr %4, align 8, !tbaa !11
  call void @llvm.lifetime.start.p0(i64 8, ptr %5) #9
  store i64 0, ptr %5, align 8, !tbaa !9
  call void @llvm.lifetime.start.p0(i64 8, ptr %6) #9
  store i64 0, ptr %6, align 8, !tbaa !9
  call void @llvm.lifetime.start.p0(i64 8, ptr %7) #9
  store i64 0, ptr %7, align 8, !tbaa !9
  call void @llvm.lifetime.start.p0(i64 8, ptr %8) #9
  store i64 0, ptr %8, align 8, !tbaa !9
  call void @llvm.lifetime.start.p0(i64 4, ptr %9) #9
  store i32 0, ptr %9, align 4, !tbaa !23
  br label %12

12:                                               ; preds = %64, %2
  %13 = load i32, ptr %9, align 4, !tbaa !23
  %14 = icmp ult i32 %13, 4
  br i1 %14, label %16, label %15

15:                                               ; preds = %12
  store i32 2, ptr %10, align 4
  call void @llvm.lifetime.end.p0(i64 4, ptr %9) #9
  br label %67

16:                                               ; preds = %12
  call void @llvm.lifetime.start.p0(i64 4, ptr %11) #9
  store i32 0, ptr %11, align 4, !tbaa !23
  br label %17

17:                                               ; preds = %60, %16
  %18 = load i32, ptr %11, align 4, !tbaa !23
  %19 = icmp ult i32 %18, 64
  br i1 %19, label %21, label %20

20:                                               ; preds = %17
  store i32 5, ptr %10, align 4
  call void @llvm.lifetime.end.p0(i64 4, ptr %11) #9
  br label %63

21:                                               ; preds = %17
  %22 = load ptr, ptr %4, align 8, !tbaa !11
  %23 = load i32, ptr %9, align 4, !tbaa !23
  %24 = zext i32 %23 to i64
  %25 = getelementptr inbounds nuw i64, ptr %22, i64 %24
  %26 = load i64, ptr %25, align 8, !tbaa !9
  %27 = load i32, ptr %11, align 4, !tbaa !23
  %28 = zext i32 %27 to i64
  %29 = shl i64 1, %28
  %30 = and i64 %26, %29
  %31 = icmp ne i64 %30, 0
  br i1 %31, label %32, label %57

32:                                               ; preds = %21
  %33 = load ptr, ptr %3, align 8, !tbaa !4
  %34 = getelementptr inbounds nuw %struct._php_random_status_state_xoshiro256starstar, ptr %33, i32 0, i32 0
  %35 = getelementptr inbounds [4 x i64], ptr %34, i64 0, i64 0
  %36 = load i64, ptr %35, align 8, !tbaa !9
  %37 = load i64, ptr %5, align 8, !tbaa !9
  %38 = xor i64 %37, %36
  store i64 %38, ptr %5, align 8, !tbaa !9
  %39 = load ptr, ptr %3, align 8, !tbaa !4
  %40 = getelementptr inbounds nuw %struct._php_random_status_state_xoshiro256starstar, ptr %39, i32 0, i32 0
  %41 = getelementptr inbounds [4 x i64], ptr %40, i64 0, i64 1
  %42 = load i64, ptr %41, align 8, !tbaa !9
  %43 = load i64, ptr %6, align 8, !tbaa !9
  %44 = xor i64 %43, %42
  store i64 %44, ptr %6, align 8, !tbaa !9
  %45 = load ptr, ptr %3, align 8, !tbaa !4
  %46 = getelementptr inbounds nuw %struct._php_random_status_state_xoshiro256starstar, ptr %45, i32 0, i32 0
  %47 = getelementptr inbounds [4 x i64], ptr %46, i64 0, i64 2
  %48 = load i64, ptr %47, align 8, !tbaa !9
  %49 = load i64, ptr %7, align 8, !tbaa !9
  %50 = xor i64 %49, %48
  store i64 %50, ptr %7, align 8, !tbaa !9
  %51 = load ptr, ptr %3, align 8, !tbaa !4
  %52 = getelementptr inbounds nuw %struct._php_random_status_state_xoshiro256starstar, ptr %51, i32 0, i32 0
  %53 = getelementptr inbounds [4 x i64], ptr %52, i64 0, i64 3
  %54 = load i64, ptr %53, align 8, !tbaa !9
  %55 = load i64, ptr %8, align 8, !tbaa !9
  %56 = xor i64 %55, %54
  store i64 %56, ptr %8, align 8, !tbaa !9
  br label %57

57:                                               ; preds = %32, %21
  %58 = load ptr, ptr %3, align 8, !tbaa !4
  %59 = call i64 @generate_state(ptr noundef %58)
  br label %60

60:                                               ; preds = %57
  %61 = load i32, ptr %11, align 4, !tbaa !23
  %62 = add i32 %61, 1
  store i32 %62, ptr %11, align 4, !tbaa !23
  br label %17

63:                                               ; preds = %20
  br label %64

64:                                               ; preds = %63
  %65 = load i32, ptr %9, align 4, !tbaa !23
  %66 = add i32 %65, 1
  store i32 %66, ptr %9, align 4, !tbaa !23
  br label %12

67:                                               ; preds = %15
  %68 = load i64, ptr %5, align 8, !tbaa !9
  %69 = load ptr, ptr %3, align 8, !tbaa !4
  %70 = getelementptr inbounds nuw %struct._php_random_status_state_xoshiro256starstar, ptr %69, i32 0, i32 0
  %71 = getelementptr inbounds [4 x i64], ptr %70, i64 0, i64 0
  store i64 %68, ptr %71, align 8, !tbaa !9
  %72 = load i64, ptr %6, align 8, !tbaa !9
  %73 = load ptr, ptr %3, align 8, !tbaa !4
  %74 = getelementptr inbounds nuw %struct._php_random_status_state_xoshiro256starstar, ptr %73, i32 0, i32 0
  %75 = getelementptr inbounds [4 x i64], ptr %74, i64 0, i64 1
  store i64 %72, ptr %75, align 8, !tbaa !9
  %76 = load i64, ptr %7, align 8, !tbaa !9
  %77 = load ptr, ptr %3, align 8, !tbaa !4
  %78 = getelementptr inbounds nuw %struct._php_random_status_state_xoshiro256starstar, ptr %77, i32 0, i32 0
  %79 = getelementptr inbounds [4 x i64], ptr %78, i64 0, i64 2
  store i64 %76, ptr %79, align 8, !tbaa !9
  %80 = load i64, ptr %8, align 8, !tbaa !9
  %81 = load ptr, ptr %3, align 8, !tbaa !4
  %82 = getelementptr inbounds nuw %struct._php_random_status_state_xoshiro256starstar, ptr %81, i32 0, i32 0
  %83 = getelementptr inbounds [4 x i64], ptr %82, i64 0, i64 3
  store i64 %80, ptr %83, align 8, !tbaa !9
  call void @llvm.lifetime.end.p0(i64 8, ptr %8) #9
  call void @llvm.lifetime.end.p0(i64 8, ptr %7) #9
  call void @llvm.lifetime.end.p0(i64 8, ptr %6) #9
  call void @llvm.lifetime.end.p0(i64 8, ptr %5) #9
  ret void
}

; Function Attrs: nounwind uwtable
define dso_local void @php_random_xoshiro256starstar_jump(ptr noundef %0) #2 {
  %2 = alloca ptr, align 8
  store ptr %0, ptr %2, align 8, !tbaa !4
  %3 = load ptr, ptr %2, align 8, !tbaa !4
  call void @jump(ptr noundef %3, ptr noundef @php_random_xoshiro256starstar_jump.jmp)
  ret void
}

; Function Attrs: inlinehint nounwind uwtable
define internal ptr @php_random_engine_from_obj(ptr noundef %0) #0 {
  %2 = alloca ptr, align 8
  store ptr %0, ptr %2, align 8, !tbaa !37
  %3 = load ptr, ptr %2, align 8, !tbaa !37
  %4 = getelementptr inbounds i8, ptr %3, i64 -16
  ret ptr %4
}

; Function Attrs: nounwind uwtable
define hidden void @zim_Random_Engine_Xoshiro256StarStar_jump(ptr noundef %0, ptr noundef %1) #2 {
  %3 = alloca ptr, align 8
  %4 = alloca ptr, align 8
  %5 = alloca %struct._php_random_algo_with_state, align 8
  %6 = alloca ptr, align 8
  %7 = alloca i32, align 4
  store ptr %0, ptr %3, align 8, !tbaa !33
  store ptr %1, ptr %4, align 8, !tbaa !25
  call void @llvm.lifetime.start.p0(i64 16, ptr %5) #9
  %8 = load ptr, ptr %3, align 8, !tbaa !33
  %9 = getelementptr inbounds nuw %struct._zend_execute_data, ptr %8, i32 0, i32 4
  %10 = getelementptr inbounds nuw %struct._zval_struct, ptr %9, i32 0, i32 0
  %11 = load ptr, ptr %10, align 8, !tbaa !29
  %12 = call ptr @php_random_engine_from_obj(ptr noundef %11)
  %13 = getelementptr inbounds nuw %struct._php_random_engine, ptr %12, i32 0, i32 0
  call void @llvm.memcpy.p0.p0.i64(ptr align 8 %5, ptr align 8 %13, i64 16, i1 false), !tbaa.struct !35
  call void @llvm.lifetime.start.p0(i64 8, ptr %6) #9
  %14 = getelementptr inbounds nuw %struct._php_random_algo_with_state, ptr %5, i32 0, i32 1
  %15 = load ptr, ptr %14, align 8, !tbaa !20
  store ptr %15, ptr %6, align 8, !tbaa !4
  br label %16

16:                                               ; preds = %2
  %17 = load ptr, ptr %3, align 8, !tbaa !33
  %18 = getelementptr inbounds nuw %struct._zend_execute_data, ptr %17, i32 0, i32 4
  %19 = getelementptr inbounds nuw %struct._zval_struct, ptr %18, i32 0, i32 2
  %20 = load i32, ptr %19, align 4, !tbaa !29
  %21 = icmp ne i32 %20, 0
  %22 = xor i1 %21, true
  %23 = xor i1 %22, true
  %24 = zext i1 %23 to i32
  %25 = sext i32 %24 to i64
  %26 = call i64 @llvm.expect.i64(i64 %25, i64 0)
  %27 = icmp ne i64 %26, 0
  br i1 %27, label %28, label %29

28:                                               ; preds = %16
  call void @zend_wrong_parameters_none_error()
  store i32 1, ptr %7, align 4
  br label %33

29:                                               ; preds = %16
  br label %30

30:                                               ; preds = %29
  br label %31

31:                                               ; preds = %30
  %32 = load ptr, ptr %6, align 8, !tbaa !4
  call void @php_random_xoshiro256starstar_jump(ptr noundef %32)
  store i32 0, ptr %7, align 4
  br label %33

33:                                               ; preds = %31, %28
  call void @llvm.lifetime.end.p0(i64 8, ptr %6) #9
  call void @llvm.lifetime.end.p0(i64 16, ptr %5) #9
  %34 = load i32, ptr %7, align 4
  switch i32 %34, label %36 [
    i32 0, label %35
    i32 1, label %35
  ]

35:                                               ; preds = %33, %33
  ret void

36:                                               ; preds = %33
  unreachable
}