; Function Attrs: nounwind uwtable
define hidden void @zim_Random_Engine_Xoshiro256StarStar_jump(ptr noundef readonly captures(none) %0, ptr noundef readnone captures(none) %1) local_unnamed_addr #3 {
  %3 = getelementptr inbounds nuw i8, ptr %0, i64 44
  %4 = load i32, ptr %3, align 4, !tbaa !8
  %.not = icmp eq i32 %4, 0
  br i1 %.not, label %6, label %5, !prof !16

5:                                                ; preds = %2
  tail call void @zend_wrong_parameters_none_error() #8
  br label %39

6:                                                ; preds = %2
  %7 = getelementptr inbounds nuw i8, ptr %0, i64 32
  %8 = load ptr, ptr %7, align 8, !tbaa !8
  %.sroa.3.0..sroa_idx = getelementptr inbounds i8, ptr %8, i64 -8
  %.sroa.3.0.copyload = load ptr, ptr %.sroa.3.0..sroa_idx, align 8, !tbaa !17
  %9 = getelementptr inbounds nuw i8, ptr %.sroa.3.0.copyload, i64 8
  %10 = getelementptr inbounds nuw i8, ptr %.sroa.3.0.copyload, i64 16
  %11 = getelementptr inbounds nuw i8, ptr %.sroa.3.0.copyload, i64 24
  %.promoted.i.i = load i64, ptr %.sroa.3.0.copyload, align 8, !tbaa !4
  %.promoted39.i.i = load i64, ptr %9, align 8, !tbaa !4
  %.promoted40.i.i = load i64, ptr %10, align 8, !tbaa !4
  %.promoted41.i.i = load i64, ptr %11, align 8, !tbaa !4
  br label %.preheader.i.i

.preheader.i.i:                                   ; preds = %18, %6
  %indvars.iv54.i.i = phi i64 [ 0, %6 ], [ %indvars.iv.next55.i.i, %18 ]
  %.02448.i.i = phi i64 [ 0, %6 ], [ %.2.i.i, %18 ]
  %.02547.i.i = phi i64 [ 0, %6 ], [ %.227.i.i, %18 ]
  %.02846.i.i = phi i64 [ 0, %6 ], [ %.230.i.i, %18 ]
  %.03145.i.i = phi i64 [ 0, %6 ], [ %.233.i.i, %18 ]
  %12 = phi i64 [ %.promoted.i.i, %6 ], [ %36, %18 ]
  %13 = phi i64 [ %.promoted39.i.i, %6 ], [ %35, %18 ]
  %14 = phi i64 [ %.promoted40.i.i, %6 ], [ %37, %18 ]
  %15 = phi i64 [ %.promoted41.i.i, %6 ], [ %38, %18 ]
  %16 = getelementptr inbounds nuw i64, ptr @php_random_xoshiro256starstar_jump.jmp, i64 %indvars.iv54.i.i
  %17 = load i64, ptr %16, align 8, !tbaa !4
  br label %19

18:                                               ; preds = %31
  %indvars.iv.next55.i.i = add nuw nsw i64 %indvars.iv54.i.i, 1
  %exitcond57.not.i.i = icmp eq i64 %indvars.iv.next55.i.i, 4
  br i1 %exitcond57.not.i.i, label %php_random_xoshiro256starstar_jump.exit, label %.preheader.i.i

19:                                               ; preds = %31, %.preheader.i.i
  %indvars.iv.i.i = phi i64 [ 0, %.preheader.i.i ], [ %indvars.iv.next.i.i, %31 ]
  %20 = phi i64 [ %15, %.preheader.i.i ], [ %38, %31 ]
  %21 = phi i64 [ %14, %.preheader.i.i ], [ %37, %31 ]
  %22 = phi i64 [ %13, %.preheader.i.i ], [ %35, %31 ]
  %23 = phi i64 [ %12, %.preheader.i.i ], [ %36, %31 ]
  %.137.i.i = phi i64 [ %.02448.i.i, %.preheader.i.i ], [ %.2.i.i, %31 ]
  %.12636.i.i = phi i64 [ %.02547.i.i, %.preheader.i.i ], [ %.227.i.i, %31 ]
  %.12935.i.i = phi i64 [ %.02846.i.i, %.preheader.i.i ], [ %.230.i.i, %31 ]
  %.13234.i.i = phi i64 [ %.03145.i.i, %.preheader.i.i ], [ %.233.i.i, %31 ]
  %24 = shl nuw i64 1, %indvars.iv.i.i
  %25 = and i64 %24, %17
  %.not.i.i = icmp eq i64 %25, 0
  br i1 %.not.i.i, label %31, label %26

26:                                               ; preds = %19
  %27 = xor i64 %.13234.i.i, %23
  %28 = xor i64 %.12935.i.i, %22
  %29 = xor i64 %.12636.i.i, %21
  %30 = xor i64 %.137.i.i, %20
  br label %31

31:                                               ; preds = %26, %19
  %.233.i.i = phi i64 [ %27, %26 ], [ %.13234.i.i, %19 ]
  %.230.i.i = phi i64 [ %28, %26 ], [ %.12935.i.i, %19 ]
  %.227.i.i = phi i64 [ %29, %26 ], [ %.12636.i.i, %19 ]
  %.2.i.i = phi i64 [ %30, %26 ], [ %.137.i.i, %19 ]
  %32 = shl i64 %22, 17
  %33 = xor i64 %23, %21
  %34 = xor i64 %22, %20
  %35 = xor i64 %33, %22
  %36 = xor i64 %34, %23
  %37 = xor i64 %33, %32
  %38 = tail call i64 @llvm.fshl.i64(i64 %34, i64 %34, i64 45)
  %indvars.iv.next.i.i = add nuw nsw i64 %indvars.iv.i.i, 1
  %exitcond.not.i.i = icmp eq i64 %indvars.iv.next.i.i, 64
  br i1 %exitcond.not.i.i, label %18, label %19

php_random_xoshiro256starstar_jump.exit:          ; preds = %18
  store i64 %.233.i.i, ptr %.sroa.3.0.copyload, align 8, !tbaa !4
  store i64 %.230.i.i, ptr %9, align 8, !tbaa !4
  store i64 %.227.i.i, ptr %10, align 8, !tbaa !4
  store i64 %.2.i.i, ptr %11, align 8, !tbaa !4
  br label %39

39:                                               ; preds = %php_random_xoshiro256starstar_jump.exit, %5
  ret void
}